target datalayout = "e-m:e-p270:32:32-p271:32:32-p272:64:64-i64:64-i128:128-f80:128-n8:16:32:64-S128"
target triple = "x86_64-pc-linux-gnu"

%struct._packet_info = type { ptr, ptr, i32, i32, %struct.nstime_t, %struct.nstime_t, %struct.nstime_t, i8, ptr, ptr, ptr, ptr, %struct._address, %struct._address, %struct._address, %struct._address, %struct._address, %struct._address, i32, ptr, i8, [3 x i8], %struct.anon, i32, i32, i32, i32, ptr, i8, ptr, ptr, i16, i16, i32, i32, i16, i32, i32, ptr, ptr, ptr, i8, i8, i16, i16, i16, i32, i16, i16, ptr, ptr, ptr, ptr, ptr, i32, i32 }
%struct.nstime_t = type { i64, i32 }
%struct._address = type { i32, i32, ptr, ptr }
%struct.anon = type { i8, [3 x i8] }

@hf_ua3g_command_sidetone = internal global i32 0, align 4
@hf_ua3g_sidetone_level = internal global i32 0, align 4
@.str.992 = private unnamed_addr constant [4 x i8] c"Off\00", align 1
@.str.1169 = private unnamed_addr constant [3 x i8] c"On\00", align 1
@.str.1223 = private unnamed_addr constant [5 x i8] c": %s\00", align 1

; Function Attrs: null_pointer_is_valid sspstrong uwtable
define internal void @decode_sidetone(ptr noundef %0, ptr noundef %1, ptr noundef %2, i32 noundef %3) #0 {
  %5 = alloca ptr, align 8
  %6 = alloca ptr, align 8
  %7 = alloca ptr, align 8
  %8 = alloca i32, align 4
  %9 = alloca i8, align 1
  %10 = alloca ptr, align 8
  store ptr %0, ptr %5, align 8
  store ptr %1, ptr %6, align 8
  store ptr %2, ptr %7, align 8
  store i32 %3, ptr %8, align 4
  call void @llvm.lifetime.start.p0(i64 1, ptr %9) #8
  call void @llvm.lifetime.start.p0(i64 8, ptr %10) #8
  %11 = load ptr, ptr %6, align 8
  %12 = load i32, ptr %8, align 4
  %13 = call zeroext i8 @tvb_get_uint8(ptr noundef %11, i32 noundef %12)
  store i8 %13, ptr %9, align 1
  %14 = load i8, ptr %9, align 1
  %15 = zext i8 %14 to i32
  %16 = icmp ne i32 %15, 0
  %17 = select i1 %16, ptr @.str.1169, ptr @.str.992
  store ptr %17, ptr %10, align 8
  %18 = load ptr, ptr %7, align 8
  %19 = getelementptr inbounds nuw %struct._packet_info, ptr %18, i32 0, i32 1
  %20 = load ptr, ptr %19, align 8
  %21 = load ptr, ptr %10, align 8
  call void (ptr, i32, ptr, ...) @col_append_fstr(ptr noundef %20, i32 noundef 25, ptr noundef @.str.1223, ptr noundef %21)
  %22 = load ptr, ptr %5, align 8
  %23 = load i32, ptr @hf_ua3g_command_sidetone, align 4
  %24 = load ptr, ptr %6, align 8
  %25 = load i32, ptr %8, align 4
  %26 = call ptr @proto_tree_add_item(ptr noundef %22, i32 noundef %23, ptr noundef %24, i32 noundef %25, i32 noundef 1, i32 noundef 0)
  %27 = load i8, ptr %9, align 1
  %28 = zext i8 %27 to i32
  %29 = icmp eq i32 %28, 1
  br i1 %29, label %30, label %45

30:                                               ; preds = %4
  %31 = load ptr, ptr %5, align 8
  %32 = load i32, ptr @hf_ua3g_sidetone_level, align 4
  %33 = load ptr, ptr %6, align 8
  %34 = load i32, ptr %8, align 4
  %35 = add i32 %34, 1
  %36 = load ptr, ptr %6, align 8
  %37 = load i32, ptr %8, align 4
  %38 = add i32 %37, 1
  %39 = call zeroext i8 @tvb_get_uint8(ptr noundef %36, i32 noundef %38)
  %40 = zext i8 %39 to i32
  %41 = sdiv i32 %40, 2
  %42 = trunc i32 %41 to i8
  %43 = sext i8 %42 to i32
  %44 = call ptr @proto_tree_add_int(ptr noundef %31, i32 noundef %32, ptr noundef %33, i32 noundef %35, i32 noundef 1, i32 noundef %43)
  br label %45

45:                                               ; preds = %30, %4
  call void @llvm.lifetime.end.p0(i64 8, ptr %10) #8
  call void @llvm.lifetime.end.p0(i64 1, ptr %9) #8
  ret void
}