; Function Attrs: null_pointer_is_valid sspstrong uwtable
define internal fastcc void @decode_sidetone(ptr noundef %0, ptr noundef %1, ptr noundef readonly captures(none) %2) unnamed_addr #0 {
  %4 = tail call zeroext i8 @tvb_get_uint8(ptr noundef %1, i32 noundef 3)
  %.not = icmp eq i8 %4, 0
  %5 = select i1 %.not, ptr @.str.992, ptr @.str.1169
  %6 = getelementptr inbounds nuw i8, ptr %2, i64 8
  %7 = load ptr, ptr %6, align 8
  tail call void (ptr, i32, ptr, ...) @col_append_fstr(ptr noundef %7, i32 noundef 25, ptr noundef nonnull @.str.1223, ptr noundef nonnull %5)
  %8 = load i32, ptr @hf_ua3g_command_sidetone, align 4
  %9 = tail call ptr @proto_tree_add_item(ptr noundef %0, i32 noundef %8, ptr noundef %1, i32 noundef 3, i32 noundef 1, i32 noundef 0)
  %10 = icmp eq i8 %4, 1
  br i1 %10, label %11, label %17

11:                                               ; preds = %3
  %12 = load i32, ptr @hf_ua3g_sidetone_level, align 4
  %13 = tail call zeroext i8 @tvb_get_uint8(ptr noundef %1, i32 noundef 4)
  %14 = lshr i8 %13, 1
  %15 = zext nneg i8 %14 to i32
  %16 = tail call ptr @proto_tree_add_int(ptr noundef %0, i32 noundef %12, ptr noundef %1, i32 noundef 4, i32 noundef 1, i32 noundef %15)
  br label %17

17:                                               ; preds = %11, %3
  ret void
}